; Function Attrs: mustprogress uwtable
define hidden void @_ZN3euf9ac_plugin4joinENS_13justificationEj(ptr dead_on_unwind noalias writable writeonly sret(%"class.euf::justification") align 8 captures(none) initializes((0, 4), (8, 9), (16, 24)) %0, ptr noundef nonnull readonly align 8 captures(none) dereferenceable(432) %1, ptr noundef readonly byval(%"class.euf::justification") align 8 captures(none) %2, i32 noundef %3) local_unnamed_addr #3 align 2 {
  %5 = getelementptr inbounds nuw i8, ptr %1, i64 96
  %6 = load ptr, ptr %5, align 8, !tbaa !242
  %7 = load ptr, ptr %6, align 8, !tbaa !243
  %8 = tail call noundef ptr @_ZN6region8allocateEm(ptr noundef nonnull align 8 dereferenceable(40) %7, i64 noundef 32)
  store i32 -2147483648, ptr %8, align 4
  %9 = getelementptr inbounds nuw i8, ptr %8, i64 8
  call void @llvm.memcpy.p0.p0.i64(ptr noundef nonnull align 8 dereferenceable(24) %9, ptr noundef nonnull align 8 dereferenceable(24) %2, i64 24, i1 false), !tbaa.struct !249
  %10 = tail call noundef ptr @_ZN3euf9ac_plugin16justify_equationEj(ptr noundef nonnull align 8 dereferenceable(432) %1, i32 noundef %3)
  %11 = icmp eq ptr %10, null
  %12 = icmp eq ptr %8, %10
  %or.cond.i.i = or i1 %11, %12
  br i1 %or.cond.i.i, label %_ZN26stacked_dependency_managerIN3euf13justificationEE7mk_joinEPN18dependency_managerINS2_6configEE10dependencyES7_.exit, label %_ZN18dependency_managerIN26stacked_dependency_managerIN3euf13justificationEE6configEE7inc_refEPNS5_10dependencyE.exit17.i.i

_ZN18dependency_managerIN26stacked_dependency_managerIN3euf13justificationEE6configEE7inc_refEPNS5_10dependencyE.exit17.i.i: ; preds = %4
  %13 = load ptr, ptr %5, align 8, !tbaa !242
  %14 = load ptr, ptr %13, align 8, !tbaa !243
  %15 = tail call noundef ptr @_ZN6region8allocateEm(ptr noundef nonnull align 8 dereferenceable(40) %14, i64 noundef 24)
  %16 = load i32, ptr %8, align 4
  %17 = add i32 %16, 1
  %18 = and i32 %17, 1073741823
  %19 = and i32 %16, -1073741824
  %20 = or disjoint i32 %18, %19
  store i32 %20, ptr %8, align 4
  %21 = load i32, ptr %10, align 4
  %22 = add i32 %21, 1
  %23 = and i32 %22, 1073741823
  %24 = and i32 %21, -1073741824
  %25 = or disjoint i32 %23, %24
  store i32 %25, ptr %10, align 4
  store i32 0, ptr %15, align 4
  %26 = getelementptr inbounds nuw i8, ptr %15, i64 8
  store ptr %8, ptr %26, align 8, !tbaa !244
  %27 = getelementptr inbounds nuw i8, ptr %15, i64 16
  store ptr %10, ptr %27, align 8, !tbaa !244
  br label %_ZN26stacked_dependency_managerIN3euf13justificationEE7mk_joinEPN18dependency_managerINS2_6configEE10dependencyES7_.exit

_ZN26stacked_dependency_managerIN3euf13justificationEE7mk_joinEPN18dependency_managerINS2_6configEE10dependencyES7_.exit: ; preds = %4, %_ZN18dependency_managerIN26stacked_dependency_managerIN3euf13justificationEE6configEE7inc_refEPNS5_10dependencyE.exit17.i.i
  %.0.i.i = phi ptr [ %15, %_ZN18dependency_managerIN26stacked_dependency_managerIN3euf13justificationEE6configEE7inc_refEPNS5_10dependencyE.exit17.i.i ], [ %8, %4 ]
  store i32 3, ptr %0, align 8, !tbaa !88, !alias.scope !279
  %28 = getelementptr inbounds nuw i8, ptr %0, i64 8
  store i8 0, ptr %28, align 8, !tbaa !89, !alias.scope !279
  %29 = getelementptr inbounds nuw i8, ptr %0, i64 16
  store ptr %.0.i.i, ptr %29, align 8, !tbaa !89, !alias.scope !279
  ret void
}